target datalayout = "e-m:e-p270:32:32-p271:32:32-p272:64:64-i64:64-i128:128-f80:128-n8:16:32:64-S128"
target triple = "x86_64-pc-linux-gnu"

%struct.Vec_Int_t_ = type { i32, i32, ptr }
%struct.Abc_RData_t_ = type { i32, i32, i32, i32, ptr, ptr, ptr, ptr }
%struct.Vec_Wrd_t_ = type { i32, i32, ptr }

; Function Attrs: inlinehint nounwind uwtable
define internal ptr @Vec_WrdAlloc(i32 noundef %0) #2 {
  %2 = alloca i32, align 4
  %3 = alloca ptr, align 8
  store i32 %0, ptr %2, align 4, !tbaa !8
  call void @llvm.lifetime.start.p0(i64 8, ptr %3) #14
  %4 = call noalias ptr @malloc(i64 noundef 16) #16
  store ptr %4, ptr %3, align 8, !tbaa !183
  %5 = load i32, ptr %2, align 4, !tbaa !8
  %6 = icmp sgt i32 %5, 0
  br i1 %6, label %7, label %11

7:                                                ; preds = %1
  %8 = load i32, ptr %2, align 4, !tbaa !8
  %9 = icmp slt i32 %8, 16
  br i1 %9, label %10, label %11

10:                                               ; preds = %7
  store i32 16, ptr %2, align 4, !tbaa !8
  br label %11

11:                                               ; preds = %10, %7, %1
  %12 = load ptr, ptr %3, align 8, !tbaa !183
  %13 = getelementptr inbounds nuw %struct.Vec_Wrd_t_, ptr %12, i32 0, i32 1
  store i32 0, ptr %13, align 4, !tbaa !219
  %14 = load i32, ptr %2, align 4, !tbaa !8
  %15 = load ptr, ptr %3, align 8, !tbaa !183
  %16 = getelementptr inbounds nuw %struct.Vec_Wrd_t_, ptr %15, i32 0, i32 0
  store i32 %14, ptr %16, align 8, !tbaa !222
  %17 = load ptr, ptr %3, align 8, !tbaa !183
  %18 = getelementptr inbounds nuw %struct.Vec_Wrd_t_, ptr %17, i32 0, i32 0
  %19 = load i32, ptr %18, align 8, !tbaa !222
  %20 = icmp ne i32 %19, 0
  br i1 %20, label %21, label %28

21:                                               ; preds = %11
  %22 = load ptr, ptr %3, align 8, !tbaa !183
  %23 = getelementptr inbounds nuw %struct.Vec_Wrd_t_, ptr %22, i32 0, i32 0
  %24 = load i32, ptr %23, align 8, !tbaa !222
  %25 = sext i32 %24 to i64
  %26 = mul i64 8, %25
  %27 = call noalias ptr @malloc(i64 noundef %26) #16
  br label %29

28:                                               ; preds = %11
  br label %29

29:                                               ; preds = %28, %21
  %30 = phi ptr [ %27, %21 ], [ null, %28 ]
  %31 = load ptr, ptr %3, align 8, !tbaa !183
  %32 = getelementptr inbounds nuw %struct.Vec_Wrd_t_, ptr %31, i32 0, i32 2
  store ptr %30, ptr %32, align 8, !tbaa !221
  %33 = load ptr, ptr %3, align 8, !tbaa !183
  call void @llvm.lifetime.end.p0(i64 8, ptr %3) #14
  ret ptr %33
}

; Function Attrs: inlinehint nounwind uwtable
define internal ptr @Vec_IntAlloc(i32 noundef %0) #2 {
  %2 = alloca i32, align 4
  %3 = alloca ptr, align 8
  store i32 %0, ptr %2, align 4, !tbaa !8
  call void @llvm.lifetime.start.p0(i64 8, ptr %3) #14
  %4 = call noalias ptr @malloc(i64 noundef 16) #16
  store ptr %4, ptr %3, align 8, !tbaa !10
  %5 = load i32, ptr %2, align 4, !tbaa !8
  %6 = icmp sgt i32 %5, 0
  br i1 %6, label %7, label %11

7:                                                ; preds = %1
  %8 = load i32, ptr %2, align 4, !tbaa !8
  %9 = icmp slt i32 %8, 16
  br i1 %9, label %10, label %11

10:                                               ; preds = %7
  store i32 16, ptr %2, align 4, !tbaa !8
  br label %11

11:                                               ; preds = %10, %7, %1
  %12 = load ptr, ptr %3, align 8, !tbaa !10
  %13 = getelementptr inbounds nuw %struct.Vec_Int_t_, ptr %12, i32 0, i32 1
  store i32 0, ptr %13, align 4, !tbaa !14
  %14 = load i32, ptr %2, align 4, !tbaa !8
  %15 = load ptr, ptr %3, align 8, !tbaa !10
  %16 = getelementptr inbounds nuw %struct.Vec_Int_t_, ptr %15, i32 0, i32 0
  store i32 %14, ptr %16, align 8, !tbaa !19
  %17 = load ptr, ptr %3, align 8, !tbaa !10
  %18 = getelementptr inbounds nuw %struct.Vec_Int_t_, ptr %17, i32 0, i32 0
  %19 = load i32, ptr %18, align 8, !tbaa !19
  %20 = icmp ne i32 %19, 0
  br i1 %20, label %21, label %28

21:                                               ; preds = %11
  %22 = load ptr, ptr %3, align 8, !tbaa !10
  %23 = getelementptr inbounds nuw %struct.Vec_Int_t_, ptr %22, i32 0, i32 0
  %24 = load i32, ptr %23, align 8, !tbaa !19
  %25 = sext i32 %24 to i64
  %26 = mul i64 4, %25
  %27 = call noalias ptr @malloc(i64 noundef %26) #16
  br label %29

28:                                               ; preds = %11
  br label %29

29:                                               ; preds = %28, %21
  %30 = phi ptr [ %27, %21 ], [ null, %28 ]
  %31 = load ptr, ptr %3, align 8, !tbaa !10
  %32 = getelementptr inbounds nuw %struct.Vec_Int_t_, ptr %31, i32 0, i32 2
  store ptr %30, ptr %32, align 8, !tbaa !17
  %33 = load ptr, ptr %3, align 8, !tbaa !10
  call void @llvm.lifetime.end.p0(i64 8, ptr %3) #14
  ret ptr %33
}

; Function Attrs: inlinehint nounwind uwtable
define internal ptr @Vec_WrdStart(i32 noundef %0) #2 {
  %2 = alloca i32, align 4
  %3 = alloca ptr, align 8
  store i32 %0, ptr %2, align 4, !tbaa !8
  call void @llvm.lifetime.start.p0(i64 8, ptr %3) #14
  %4 = load i32, ptr %2, align 4, !tbaa !8
  %5 = call ptr @Vec_WrdAlloc(i32 noundef %4)
  store ptr %5, ptr %3, align 8, !tbaa !183
  %6 = load i32, ptr %2, align 4, !tbaa !8
  %7 = load ptr, ptr %3, align 8, !tbaa !183
  %8 = getelementptr inbounds nuw %struct.Vec_Wrd_t_, ptr %7, i32 0, i32 1
  store i32 %6, ptr %8, align 4, !tbaa !219
  %9 = load ptr, ptr %3, align 8, !tbaa !183
  %10 = getelementptr inbounds nuw %struct.Vec_Wrd_t_, ptr %9, i32 0, i32 2
  %11 = load ptr, ptr %10, align 8, !tbaa !221
  %12 = load i32, ptr %2, align 4, !tbaa !8
  %13 = sext i32 %12 to i64
  %14 = mul i64 8, %13
  call void @llvm.memset.p0.i64(ptr align 8 %11, i8 0, i64 %14, i1 false)
  %15 = load ptr, ptr %3, align 8, !tbaa !183
  call void @llvm.lifetime.end.p0(i64 8, ptr %3) #14
  ret ptr %15
}

; Function Attrs: inlinehint nounwind uwtable
define internal i32 @Abc_Bit6WordNum(i32 noundef %0) #2 {
  %2 = alloca i32, align 4
  store i32 %0, ptr %2, align 4, !tbaa !8
  %3 = load i32, ptr %2, align 4, !tbaa !8
  %4 = ashr i32 %3, 6
  %5 = load i32, ptr %2, align 4, !tbaa !8
  %6 = and i32 %5, 63
  %7 = icmp sgt i32 %6, 0
  %8 = zext i1 %7 to i32
  %9 = add nsw i32 %4, %8
  ret i32 %9
}

; Function Attrs: inlinehint nounwind uwtable
define internal ptr @Abc_RDataStart(i32 noundef %0, i32 noundef %1, i32 noundef %2) #2 {
  %4 = alloca i32, align 4
  %5 = alloca i32, align 4
  %6 = alloca i32, align 4
  %7 = alloca ptr, align 8
  store i32 %0, ptr %4, align 4, !tbaa !8
  store i32 %1, ptr %5, align 4, !tbaa !8
  store i32 %2, ptr %6, align 4, !tbaa !8
  call void @llvm.lifetime.start.p0(i64 8, ptr %7) #14
  %8 = call noalias ptr @calloc(i64 noundef 1, i64 noundef 48) #17
  store ptr %8, ptr %7, align 8, !tbaa !160
  %9 = load i32, ptr %4, align 4, !tbaa !8
  %10 = load ptr, ptr %7, align 8, !tbaa !160
  %11 = getelementptr inbounds nuw %struct.Abc_RData_t_, ptr %10, i32 0, i32 0
  store i32 %9, ptr %11, align 8, !tbaa !164
  %12 = load i32, ptr %5, align 4, !tbaa !8
  %13 = load ptr, ptr %7, align 8, !tbaa !160
  %14 = getelementptr inbounds nuw %struct.Abc_RData_t_, ptr %13, i32 0, i32 1
  store i32 %12, ptr %14, align 4, !tbaa !166
  %15 = load i32, ptr %6, align 4, !tbaa !8
  %16 = load ptr, ptr %7, align 8, !tbaa !160
  %17 = getelementptr inbounds nuw %struct.Abc_RData_t_, ptr %16, i32 0, i32 2
  store i32 %15, ptr %17, align 8, !tbaa !167
  %18 = load i32, ptr %6, align 4, !tbaa !8
  %19 = call i32 @Abc_Bit6WordNum(i32 noundef %18)
  %20 = load ptr, ptr %7, align 8, !tbaa !160
  %21 = getelementptr inbounds nuw %struct.Abc_RData_t_, ptr %20, i32 0, i32 3
  store i32 %19, ptr %21, align 4, !tbaa !168
  %22 = load ptr, ptr %7, align 8, !tbaa !160
  %23 = getelementptr inbounds nuw %struct.Abc_RData_t_, ptr %22, i32 0, i32 0
  %24 = load i32, ptr %23, align 8, !tbaa !164
  %25 = load ptr, ptr %7, align 8, !tbaa !160
  %26 = getelementptr inbounds nuw %struct.Abc_RData_t_, ptr %25, i32 0, i32 3
  %27 = load i32, ptr %26, align 4, !tbaa !168
  %28 = mul nsw i32 %24, %27
  %29 = call ptr @Vec_WrdStart(i32 noundef %28)
  %30 = load ptr, ptr %7, align 8, !tbaa !160
  %31 = getelementptr inbounds nuw %struct.Abc_RData_t_, ptr %30, i32 0, i32 4
  store ptr %29, ptr %31, align 8, !tbaa !169
  %32 = load ptr, ptr %7, align 8, !tbaa !160
  %33 = getelementptr inbounds nuw %struct.Abc_RData_t_, ptr %32, i32 0, i32 1
  %34 = load i32, ptr %33, align 4, !tbaa !166
  %35 = mul nsw i32 2, %34
  %36 = load ptr, ptr %7, align 8, !tbaa !160
  %37 = getelementptr inbounds nuw %struct.Abc_RData_t_, ptr %36, i32 0, i32 3
  %38 = load i32, ptr %37, align 4, !tbaa !168
  %39 = mul nsw i32 %35, %38
  %40 = call ptr @Vec_WrdStart(i32 noundef %39)
  %41 = load ptr, ptr %7, align 8, !tbaa !160
  %42 = getelementptr inbounds nuw %struct.Abc_RData_t_, ptr %41, i32 0, i32 5
  store ptr %40, ptr %42, align 8, !tbaa !170
  %43 = call ptr @Vec_IntAlloc(i32 noundef 16)
  %44 = load ptr, ptr %7, align 8, !tbaa !160
  %45 = getelementptr inbounds nuw %struct.Abc_RData_t_, ptr %44, i32 0, i32 6
  store ptr %43, ptr %45, align 8, !tbaa !171
  %46 = call ptr @Vec_IntAlloc(i32 noundef 16)
  %47 = load ptr, ptr %7, align 8, !tbaa !160
  %48 = getelementptr inbounds nuw %struct.Abc_RData_t_, ptr %47, i32 0, i32 7
  store ptr %46, ptr %48, align 8, !tbaa !172
  %49 = load ptr, ptr %7, align 8, !tbaa !160
  call void @llvm.lifetime.end.p0(i64 8, ptr %7) #14
  ret ptr %49
}