; Function Attrs: inlinehint mustprogress nofree nounwind willreturn memory(write, inaccessiblemem: readwrite) uwtable
define internal fastcc noalias noundef ptr @Abc_RDataStart(i32 noundef %0, i32 noundef %1, i32 noundef %2) unnamed_addr #12 {
  %4 = tail call noalias dereferenceable_or_null(48) ptr @calloc(i64 noundef 1, i64 noundef 48) #32
  store i32 %0, ptr %4, align 8, !tbaa !158
  %5 = getelementptr inbounds nuw i8, ptr %4, i64 4
  store i32 %1, ptr %5, align 4, !tbaa !161
  %6 = getelementptr inbounds nuw i8, ptr %4, i64 8
  store i32 %2, ptr %6, align 8, !tbaa !163
  %7 = ashr i32 %2, 6
  %8 = and i32 %2, 63
  %9 = icmp ne i32 %8, 0
  %10 = zext i1 %9 to i32
  %11 = add nsw i32 %7, %10
  %12 = getelementptr inbounds nuw i8, ptr %4, i64 12
  store i32 %11, ptr %12, align 4, !tbaa !148
  %13 = mul nsw i32 %11, %0
  %14 = tail call noalias dereferenceable_or_null(16) ptr @malloc(i64 noundef 16) #28
  %15 = add i32 %13, -1
  %or.cond.i.i = icmp ult i32 %15, 15
  %spec.store.select.i.i = select i1 %or.cond.i.i, i32 16, i32 %13
  store i32 %spec.store.select.i.i, ptr %14, align 8, !tbaa !156
  %.not.i.i = icmp eq i32 %spec.store.select.i.i, 0
  br i1 %.not.i.i, label %Vec_WrdStart.exit, label %16

16:                                               ; preds = %3
  %17 = sext i32 %spec.store.select.i.i to i64
  %18 = shl nsw i64 %17, 3
  %19 = tail call noalias ptr @malloc(i64 noundef %18) #28
  br label %Vec_WrdStart.exit

Vec_WrdStart.exit:                                ; preds = %3, %16
  %20 = phi ptr [ %19, %16 ], [ null, %3 ]
  %21 = getelementptr inbounds nuw i8, ptr %14, i64 4
  %22 = getelementptr inbounds nuw i8, ptr %14, i64 8
  store ptr %20, ptr %22, align 8, !tbaa !152
  store i32 %13, ptr %21, align 4, !tbaa !157
  %23 = sext i32 %13 to i64
  %24 = shl nsw i64 %23, 3
  tail call void @llvm.memset.p0.i64(ptr align 8 %20, i8 0, i64 %24, i1 false)
  %25 = getelementptr inbounds nuw i8, ptr %4, i64 16
  store ptr %14, ptr %25, align 8, !tbaa !151
  %26 = shl nsw i32 %1, 1
  %27 = mul nsw i32 %11, %26
  %28 = tail call noalias dereferenceable_or_null(16) ptr @malloc(i64 noundef 16) #28
  %29 = add i32 %27, -1
  %or.cond.i.i16 = icmp ult i32 %29, 15
  %spec.store.select.i.i17 = select i1 %or.cond.i.i16, i32 16, i32 %27
  store i32 %spec.store.select.i.i17, ptr %28, align 8, !tbaa !156
  %.not.i.i18 = icmp eq i32 %spec.store.select.i.i17, 0
  br i1 %.not.i.i18, label %Vec_WrdStart.exit19, label %30

30:                                               ; preds = %Vec_WrdStart.exit
  %31 = sext i32 %spec.store.select.i.i17 to i64
  %32 = shl nsw i64 %31, 3
  %33 = tail call noalias ptr @malloc(i64 noundef %32) #28
  br label %Vec_WrdStart.exit19

Vec_WrdStart.exit19:                              ; preds = %Vec_WrdStart.exit, %30
  %34 = phi ptr [ %33, %30 ], [ null, %Vec_WrdStart.exit ]
  %35 = getelementptr inbounds nuw i8, ptr %28, i64 4
  %36 = getelementptr inbounds nuw i8, ptr %28, i64 8
  store ptr %34, ptr %36, align 8, !tbaa !152
  store i32 %27, ptr %35, align 4, !tbaa !157
  %37 = sext i32 %27 to i64
  %38 = shl nsw i64 %37, 3
  tail call void @llvm.memset.p0.i64(ptr align 8 %34, i8 0, i64 %38, i1 false)
  %39 = getelementptr inbounds nuw i8, ptr %4, i64 24
  store ptr %28, ptr %39, align 8, !tbaa !150
  %40 = tail call noalias dereferenceable_or_null(16) ptr @malloc(i64 noundef 16) #28
  %41 = getelementptr inbounds nuw i8, ptr %40, i64 4
  store i32 0, ptr %41, align 4, !tbaa !11
  store i32 16, ptr %40, align 8, !tbaa !3
  %42 = tail call noalias dereferenceable_or_null(64) ptr @malloc(i64 noundef 64) #28
  %43 = getelementptr inbounds nuw i8, ptr %40, i64 8
  store ptr %42, ptr %43, align 8, !tbaa !10
  %44 = getelementptr inbounds nuw i8, ptr %4, i64 32
  store ptr %40, ptr %44, align 8, !tbaa !168
  %45 = tail call noalias dereferenceable_or_null(16) ptr @malloc(i64 noundef 16) #28
  %46 = getelementptr inbounds nuw i8, ptr %45, i64 4
  store i32 0, ptr %46, align 4, !tbaa !11
  store i32 16, ptr %45, align 8, !tbaa !3
  %47 = tail call noalias dereferenceable_or_null(64) ptr @malloc(i64 noundef 64) #28
  %48 = getelementptr inbounds nuw i8, ptr %45, i64 8
  store ptr %47, ptr %48, align 8, !tbaa !10
  %49 = getelementptr inbounds nuw i8, ptr %4, i64 40
  store ptr %45, ptr %49, align 8, !tbaa !169
  ret ptr %4
}